target datalayout = "e-m:e-p270:32:32-p271:32:32-p272:64:64-i64:64-i128:128-f80:128-n8:16:32:64-S128"
target triple = "x86_64-pc-linux-gnu"

%"struct.Yosys::RTLIL::SigSpec" = type { i32, i64, %"class.std::vector.119", %"class.std::vector.124" }
%"class.std::vector.119" = type { %"struct.std::_Vector_base.120" }
%"struct.std::_Vector_base.120" = type { %"struct.std::_Vector_base<Yosys::RTLIL::SigChunk, std::allocator<Yosys::RTLIL::SigChunk>>::_Vector_impl" }
%"struct.std::_Vector_base<Yosys::RTLIL::SigChunk, std::allocator<Yosys::RTLIL::SigChunk>>::_Vector_impl" = type { %"struct.std::_Vector_base<Yosys::RTLIL::SigChunk, std::allocator<Yosys::RTLIL::SigChunk>>::_Vector_impl_data" }
%"struct.std::_Vector_base<Yosys::RTLIL::SigChunk, std::allocator<Yosys::RTLIL::SigChunk>>::_Vector_impl_data" = type { ptr, ptr, ptr }
%"class.std::vector.124" = type { %"struct.std::_Vector_base.125" }
%"struct.std::_Vector_base.125" = type { %"struct.std::_Vector_base<Yosys::RTLIL::SigBit, std::allocator<Yosys::RTLIL::SigBit>>::_Vector_impl" }
%"struct.std::_Vector_base<Yosys::RTLIL::SigBit, std::allocator<Yosys::RTLIL::SigBit>>::_Vector_impl" = type { %"struct.std::_Vector_base<Yosys::RTLIL::SigBit, std::allocator<Yosys::RTLIL::SigBit>>::_Vector_impl_data" }
%"struct.std::_Vector_base<Yosys::RTLIL::SigBit, std::allocator<Yosys::RTLIL::SigBit>>::_Vector_impl_data" = type { ptr, ptr, ptr }
%"struct.Yosys::RTLIL::SigSpecIterator" = type { ptr, i32 }
%"struct.Yosys::RTLIL::SigBit" = type <{ ptr, %union.anon.129, [4 x i8] }>
%union.anon.129 = type { i32 }
%"class.__gnu_cxx::__normal_iterator.134" = type { ptr }

@.str.25 = private unnamed_addr constant [74 x i8] c"vector::_M_range_check: __n (which is %zu) >= this->size() (which is %zu)\00", align 1

; Function Attrs: mustprogress nounwind uwtable
define linkonce_odr noundef nonnull align 8 dereferenceable(8) ptr @_ZNK9__gnu_cxx17__normal_iteratorIPKN5Yosys5RTLIL8SigChunkESt6vectorIS3_SaIS3_EEE4baseEv(ptr noundef nonnull align 8 dereferenceable(8) %0) #5 comdat align 2 {
  %2 = alloca ptr, align 8
  store ptr %0, ptr %2, align 8
  %3 = load ptr, ptr %2, align 8
  %4 = getelementptr inbounds %"class.__gnu_cxx::__normal_iterator.134", ptr %3, i32 0, i32 0
  ret ptr %4
}

; Function Attrs: mustprogress nounwind uwtable
define linkonce_odr void @_ZN9__gnu_cxx17__normal_iteratorIPKN5Yosys5RTLIL8SigChunkESt6vectorIS3_SaIS3_EEEC2ERKS5_(ptr noundef nonnull align 8 dereferenceable(8) %0, ptr noundef nonnull align 8 dereferenceable(8) %1) unnamed_addr #5 comdat align 2 {
  %3 = alloca ptr, align 8
  %4 = alloca ptr, align 8
  store ptr %0, ptr %3, align 8
  store ptr %1, ptr %4, align 8
  %5 = load ptr, ptr %3, align 8
  %6 = getelementptr inbounds %"class.__gnu_cxx::__normal_iterator.134", ptr %5, i32 0, i32 0
  %7 = load ptr, ptr %4, align 8
  %8 = load ptr, ptr %7, align 8
  store ptr %8, ptr %6, align 8
  ret void
}

; Function Attrs: mustprogress nounwind uwtable
define linkonce_odr noundef i64 @_ZNKSt6vectorIN5Yosys5RTLIL6SigBitESaIS2_EE4sizeEv(ptr noundef nonnull align 8 dereferenceable(24) %0) #5 comdat align 2 {
  %2 = alloca ptr, align 8
  store ptr %0, ptr %2, align 8
  %3 = load ptr, ptr %2, align 8
  %4 = getelementptr inbounds %"struct.std::_Vector_base.125", ptr %3, i32 0, i32 0
  %5 = getelementptr inbounds %"struct.std::_Vector_base<Yosys::RTLIL::SigBit, std::allocator<Yosys::RTLIL::SigBit>>::_Vector_impl_data", ptr %4, i32 0, i32 1
  %6 = load ptr, ptr %5, align 8
  %7 = getelementptr inbounds %"struct.std::_Vector_base.125", ptr %3, i32 0, i32 0
  %8 = getelementptr inbounds %"struct.std::_Vector_base<Yosys::RTLIL::SigBit, std::allocator<Yosys::RTLIL::SigBit>>::_Vector_impl_data", ptr %7, i32 0, i32 0
  %9 = load ptr, ptr %8, align 8
  %10 = ptrtoint ptr %6 to i64
  %11 = ptrtoint ptr %9 to i64
  %12 = sub i64 %10, %11
  %13 = sdiv exact i64 %12, 16
  ret i64 %13
}

; Function Attrs: mustprogress nounwind uwtable
define linkonce_odr noundef zeroext i1 @_ZN9__gnu_cxxeqIPKN5Yosys5RTLIL8SigChunkESt6vectorIS3_SaIS3_EEEEbRKNS_17__normal_iteratorIT_T0_EESE_(ptr noundef nonnull align 8 dereferenceable(8) %0, ptr noundef nonnull align 8 dereferenceable(8) %1) #5 comdat {
  %3 = alloca ptr, align 8
  %4 = alloca ptr, align 8
  store ptr %0, ptr %3, align 8
  store ptr %1, ptr %4, align 8
  %5 = load ptr, ptr %3, align 8
  %6 = call noundef nonnull align 8 dereferenceable(8) ptr @_ZNK9__gnu_cxx17__normal_iteratorIPKN5Yosys5RTLIL8SigChunkESt6vectorIS3_SaIS3_EEE4baseEv(ptr noundef nonnull align 8 dereferenceable(8) %5) #3
  %7 = load ptr, ptr %6, align 8
  %8 = load ptr, ptr %4, align 8
  %9 = call noundef nonnull align 8 dereferenceable(8) ptr @_ZNK9__gnu_cxx17__normal_iteratorIPKN5Yosys5RTLIL8SigChunkESt6vectorIS3_SaIS3_EEE4baseEv(ptr noundef nonnull align 8 dereferenceable(8) %8) #3
  %10 = load ptr, ptr %9, align 8
  %11 = icmp eq ptr %7, %10
  ret i1 %11
}

; Function Attrs: mustprogress nounwind uwtable
define linkonce_odr ptr @_ZNKSt6vectorIN5Yosys5RTLIL8SigChunkESaIS2_EE3endEv(ptr noundef nonnull align 8 dereferenceable(24) %0) #5 comdat align 2 {
  %2 = alloca %"class.__gnu_cxx::__normal_iterator.134", align 8
  %3 = alloca ptr, align 8
  store ptr %0, ptr %3, align 8
  %4 = load ptr, ptr %3, align 8
  %5 = getelementptr inbounds %"struct.std::_Vector_base.120", ptr %4, i32 0, i32 0
  %6 = getelementptr inbounds %"struct.std::_Vector_base<Yosys::RTLIL::SigChunk, std::allocator<Yosys::RTLIL::SigChunk>>::_Vector_impl_data", ptr %5, i32 0, i32 1
  call void @_ZN9__gnu_cxx17__normal_iteratorIPKN5Yosys5RTLIL8SigChunkESt6vectorIS3_SaIS3_EEEC2ERKS5_(ptr noundef nonnull align 8 dereferenceable(8) %2, ptr noundef nonnull align 8 dereferenceable(8) %6) #3
  %7 = getelementptr inbounds %"class.__gnu_cxx::__normal_iterator.134", ptr %2, i32 0, i32 0
  %8 = load ptr, ptr %7, align 8
  ret ptr %8
}

; Function Attrs: mustprogress nounwind uwtable
define linkonce_odr ptr @_ZNKSt6vectorIN5Yosys5RTLIL8SigChunkESaIS2_EE5beginEv(ptr noundef nonnull align 8 dereferenceable(24) %0) #5 comdat align 2 {
  %2 = alloca %"class.__gnu_cxx::__normal_iterator.134", align 8
  %3 = alloca ptr, align 8
  store ptr %0, ptr %3, align 8
  %4 = load ptr, ptr %3, align 8
  %5 = getelementptr inbounds %"struct.std::_Vector_base.120", ptr %4, i32 0, i32 0
  %6 = getelementptr inbounds %"struct.std::_Vector_base<Yosys::RTLIL::SigChunk, std::allocator<Yosys::RTLIL::SigChunk>>::_Vector_impl_data", ptr %5, i32 0, i32 0
  call void @_ZN9__gnu_cxx17__normal_iteratorIPKN5Yosys5RTLIL8SigChunkESt6vectorIS3_SaIS3_EEEC2ERKS5_(ptr noundef nonnull align 8 dereferenceable(8) %2, ptr noundef nonnull align 8 dereferenceable(8) %6) #3
  %7 = getelementptr inbounds %"class.__gnu_cxx::__normal_iterator.134", ptr %2, i32 0, i32 0
  %8 = load ptr, ptr %7, align 8
  ret ptr %8
}

; Function Attrs: mustprogress nounwind uwtable
define linkonce_odr noundef nonnull align 8 dereferenceable(12) ptr @_ZNSt6vectorIN5Yosys5RTLIL6SigBitESaIS2_EEixEm(ptr noundef nonnull align 8 dereferenceable(24) %0, i64 noundef %1) #5 comdat align 2 {
  %3 = alloca ptr, align 8
  %4 = alloca i64, align 8
  store ptr %0, ptr %3, align 8
  store i64 %1, ptr %4, align 8
  %5 = load ptr, ptr %3, align 8
  %6 = getelementptr inbounds %"struct.std::_Vector_base.125", ptr %5, i32 0, i32 0
  %7 = getelementptr inbounds %"struct.std::_Vector_base<Yosys::RTLIL::SigBit, std::allocator<Yosys::RTLIL::SigBit>>::_Vector_impl_data", ptr %6, i32 0, i32 0
  %8 = load ptr, ptr %7, align 8
  %9 = load i64, ptr %4, align 8
  %10 = getelementptr inbounds %"struct.Yosys::RTLIL::SigBit", ptr %8, i64 %9
  ret ptr %10
}

; Function Attrs: mustprogress uwtable
define linkonce_odr void @_ZNKSt6vectorIN5Yosys5RTLIL6SigBitESaIS2_EE14_M_range_checkEm(ptr noundef nonnull align 8 dereferenceable(24) %0, i64 noundef %1) #4 comdat align 2 {
  %3 = alloca ptr, align 8
  %4 = alloca i64, align 8
  store ptr %0, ptr %3, align 8
  store i64 %1, ptr %4, align 8
  %5 = load ptr, ptr %3, align 8
  %6 = load i64, ptr %4, align 8
  %7 = call noundef i64 @_ZNKSt6vectorIN5Yosys5RTLIL6SigBitESaIS2_EE4sizeEv(ptr noundef nonnull align 8 dereferenceable(24) %5) #3
  %8 = icmp uge i64 %6, %7
  br i1 %8, label %9, label %12

9:                                                ; preds = %2
  %10 = load i64, ptr %4, align 8
  %11 = call noundef i64 @_ZNKSt6vectorIN5Yosys5RTLIL6SigBitESaIS2_EE4sizeEv(ptr noundef nonnull align 8 dereferenceable(24) %5) #3
  call void (ptr, ...) @_ZSt24__throw_out_of_range_fmtPKcz(ptr noundef @.str.25, i64 noundef %10, i64 noundef %11) #16
  unreachable

12:                                               ; preds = %2
  ret void
}

; Function Attrs: mustprogress nounwind uwtable
define linkonce_odr noundef zeroext i1 @_ZNKSt6vectorIN5Yosys5RTLIL8SigChunkESaIS2_EE5emptyEv(ptr noundef nonnull align 8 dereferenceable(24) %0) #5 comdat align 2 {
  %2 = alloca ptr, align 8
  %3 = alloca %"class.__gnu_cxx::__normal_iterator.134", align 8
  %4 = alloca %"class.__gnu_cxx::__normal_iterator.134", align 8
  store ptr %0, ptr %2, align 8
  %5 = load ptr, ptr %2, align 8
  %6 = call ptr @_ZNKSt6vectorIN5Yosys5RTLIL8SigChunkESaIS2_EE5beginEv(ptr noundef nonnull align 8 dereferenceable(24) %5) #3
  %7 = getelementptr inbounds %"class.__gnu_cxx::__normal_iterator.134", ptr %3, i32 0, i32 0
  store ptr %6, ptr %7, align 8
  %8 = call ptr @_ZNKSt6vectorIN5Yosys5RTLIL8SigChunkESaIS2_EE3endEv(ptr noundef nonnull align 8 dereferenceable(24) %5) #3
  %9 = getelementptr inbounds %"class.__gnu_cxx::__normal_iterator.134", ptr %4, i32 0, i32 0
  store ptr %8, ptr %9, align 8
  %10 = call noundef zeroext i1 @_ZN9__gnu_cxxeqIPKN5Yosys5RTLIL8SigChunkESt6vectorIS3_SaIS3_EEEEbRKNS_17__normal_iteratorIT_T0_EESE_(ptr noundef nonnull align 8 dereferenceable(8) %3, ptr noundef nonnull align 8 dereferenceable(8) %4) #3
  ret i1 %10
}

; Function Attrs: mustprogress uwtable
define linkonce_odr noundef nonnull align 8 dereferenceable(12) ptr @_ZNSt6vectorIN5Yosys5RTLIL6SigBitESaIS2_EE2atEm(ptr noundef nonnull align 8 dereferenceable(24) %0, i64 noundef %1) #4 comdat align 2 {
  %3 = alloca ptr, align 8
  %4 = alloca i64, align 8
  store ptr %0, ptr %3, align 8
  store i64 %1, ptr %4, align 8
  %5 = load ptr, ptr %3, align 8
  %6 = load i64, ptr %4, align 8
  call void @_ZNKSt6vectorIN5Yosys5RTLIL6SigBitESaIS2_EE14_M_range_checkEm(ptr noundef nonnull align 8 dereferenceable(24) %5, i64 noundef %6)
  %7 = load i64, ptr %4, align 8
  %8 = call noundef nonnull align 8 dereferenceable(12) ptr @_ZNSt6vectorIN5Yosys5RTLIL6SigBitESaIS2_EEixEm(ptr noundef nonnull align 8 dereferenceable(24) %5, i64 noundef %7) #3
  ret ptr %8
}

; Function Attrs: mustprogress uwtable
define linkonce_odr void @_ZNK5Yosys5RTLIL7SigSpec13inline_unpackEv(ptr noundef nonnull align 8 dereferenceable(64) %0) #4 comdat align 2 {
  %2 = alloca ptr, align 8
  store ptr %0, ptr %2, align 8
  %3 = load ptr, ptr %2, align 8
  %4 = getelementptr inbounds %"struct.Yosys::RTLIL::SigSpec", ptr %3, i32 0, i32 2
  %5 = call noundef zeroext i1 @_ZNKSt6vectorIN5Yosys5RTLIL8SigChunkESaIS2_EE5emptyEv(ptr noundef nonnull align 8 dereferenceable(24) %4) #3
  br i1 %5, label %7, label %6

6:                                                ; preds = %1
  call void @_ZNK5Yosys5RTLIL7SigSpec6unpackEv(ptr noundef nonnull align 8 dereferenceable(64) %3)
  br label %7

7:                                                ; preds = %6, %1
  ret void
}

; Function Attrs: mustprogress uwtable
define linkonce_odr noundef nonnull align 8 dereferenceable(12) ptr @_ZN5Yosys5RTLIL7SigSpecixEi(ptr noundef nonnull align 8 dereferenceable(64) %0, i32 noundef %1) #4 comdat align 2 {
  %3 = alloca ptr, align 8
  %4 = alloca i32, align 4
  store ptr %0, ptr %3, align 8
  store i32 %1, ptr %4, align 4
  %5 = load ptr, ptr %3, align 8
  call void @_ZNK5Yosys5RTLIL7SigSpec13inline_unpackEv(ptr noundef nonnull align 8 dereferenceable(64) %5)
  %6 = getelementptr inbounds %"struct.Yosys::RTLIL::SigSpec", ptr %5, i32 0, i32 3
  %7 = load i32, ptr %4, align 4
  %8 = sext i32 %7 to i64
  %9 = call noundef nonnull align 8 dereferenceable(12) ptr @_ZNSt6vectorIN5Yosys5RTLIL6SigBitESaIS2_EE2atEm(ptr noundef nonnull align 8 dereferenceable(24) %6, i64 noundef %8)
  ret ptr %9
}

; Function Attrs: mustprogress nounwind uwtable
define linkonce_odr void @_ZN5Yosys5RTLIL15SigSpecIteratorppEv(ptr noundef nonnull align 8 dereferenceable(16) %0) #5 comdat align 2 {
  %2 = alloca ptr, align 8
  store ptr %0, ptr %2, align 8
  %3 = load ptr, ptr %2, align 8
  %4 = getelementptr inbounds %"struct.Yosys::RTLIL::SigSpecIterator", ptr %3, i32 0, i32 1
  %5 = load i32, ptr %4, align 8
  %6 = add nsw i32 %5, 1
  store i32 %6, ptr %4, align 8
  ret void
}

; Function Attrs: mustprogress nounwind uwtable
define linkonce_odr noundef zeroext i1 @_ZNK5Yosys5RTLIL6SigBitneERKS1_(ptr noundef nonnull align 8 dereferenceable(12) %0, ptr noundef nonnull align 8 dereferenceable(12) %1) #5 comdat align 2 {
  %3 = alloca ptr, align 8
  %4 = alloca ptr, align 8
  store ptr %0, ptr %3, align 8
  store ptr %1, ptr %4, align 8
  %5 = load ptr, ptr %3, align 8
  %6 = getelementptr inbounds %"struct.Yosys::RTLIL::SigBit", ptr %5, i32 0, i32 0
  %7 = load ptr, ptr %6, align 8
  %8 = load ptr, ptr %4, align 8
  %9 = getelementptr inbounds %"struct.Yosys::RTLIL::SigBit", ptr %8, i32 0, i32 0
  %10 = load ptr, ptr %9, align 8
  %11 = icmp ne ptr %7, %10
  br i1 %11, label %34, label %12

12:                                               ; preds = %2
  %13 = getelementptr inbounds %"struct.Yosys::RTLIL::SigBit", ptr %5, i32 0, i32 0
  %14 = load ptr, ptr %13, align 8
  %15 = icmp ne ptr %14, null
  br i1 %15, label %16, label %23

16:                                               ; preds = %12
  %17 = getelementptr inbounds %"struct.Yosys::RTLIL::SigBit", ptr %5, i32 0, i32 1
  %18 = load i32, ptr %17, align 8
  %19 = load ptr, ptr %4, align 8
  %20 = getelementptr inbounds %"struct.Yosys::RTLIL::SigBit", ptr %19, i32 0, i32 1
  %21 = load i32, ptr %20, align 8
  %22 = icmp ne i32 %18, %21
  br label %32

23:                                               ; preds = %12
  %24 = getelementptr inbounds %"struct.Yosys::RTLIL::SigBit", ptr %5, i32 0, i32 1
  %25 = load i8, ptr %24, align 8
  %26 = zext i8 %25 to i32
  %27 = load ptr, ptr %4, align 8
  %28 = getelementptr inbounds %"struct.Yosys::RTLIL::SigBit", ptr %27, i32 0, i32 1
  %29 = load i8, ptr %28, align 8
  %30 = zext i8 %29 to i32
  %31 = icmp ne i32 %26, %30
  br label %32

32:                                               ; preds = %23, %16
  %33 = phi i1 [ %22, %16 ], [ %31, %23 ]
  br label %34

34:                                               ; preds = %32, %2
  %35 = phi i1 [ true, %2 ], [ %33, %32 ]
  ret i1 %35
}

; Function Attrs: mustprogress nounwind uwtable
define linkonce_odr void @_ZN5Yosys5RTLIL6SigBitC2ENS0_5StateE(ptr noundef nonnull align 8 dereferenceable(12) %0, i8 noundef zeroext %1) unnamed_addr #5 comdat align 2 {
  %3 = alloca ptr, align 8
  %4 = alloca i8, align 1
  store ptr %0, ptr %3, align 8
  store i8 %1, ptr %4, align 1
  %5 = load ptr, ptr %3, align 8
  %6 = getelementptr inbounds %"struct.Yosys::RTLIL::SigBit", ptr %5, i32 0, i32 0
  store ptr null, ptr %6, align 8
  %7 = getelementptr inbounds %"struct.Yosys::RTLIL::SigBit", ptr %5, i32 0, i32 1
  %8 = load i8, ptr %4, align 1
  store i8 %8, ptr %7, align 8
  ret void
}

; Function Attrs: mustprogress uwtable
define linkonce_odr noundef nonnull align 8 dereferenceable(12) ptr @_ZNK5Yosys5RTLIL15SigSpecIteratordeEv(ptr noundef nonnull align 8 dereferenceable(16) %0) #4 comdat align 2 {
  %2 = alloca ptr, align 8
  store ptr %0, ptr %2, align 8
  %3 = load ptr, ptr %2, align 8
  %4 = getelementptr inbounds %"struct.Yosys::RTLIL::SigSpecIterator", ptr %3, i32 0, i32 0
  %5 = load ptr, ptr %4, align 8
  %6 = getelementptr inbounds %"struct.Yosys::RTLIL::SigSpecIterator", ptr %3, i32 0, i32 1
  %7 = load i32, ptr %6, align 8
  %8 = call noundef nonnull align 8 dereferenceable(12) ptr @_ZN5Yosys5RTLIL7SigSpecixEi(ptr noundef nonnull align 8 dereferenceable(64) %5, i32 noundef %7)
  ret ptr %8
}

; Function Attrs: mustprogress nounwind uwtable
define linkonce_odr noundef zeroext i1 @_ZNK5Yosys5RTLIL15SigSpecIteratorneERKS1_(ptr noundef nonnull align 8 dereferenceable(16) %0, ptr noundef nonnull align 8 dereferenceable(16) %1) #5 comdat align 2 {
  %3 = alloca ptr, align 8
  %4 = alloca ptr, align 8
  store ptr %0, ptr %3, align 8
  store ptr %1, ptr %4, align 8
  %5 = load ptr, ptr %3, align 8
  %6 = getelementptr inbounds %"struct.Yosys::RTLIL::SigSpecIterator", ptr %5, i32 0, i32 1
  %7 = load i32, ptr %6, align 8
  %8 = load ptr, ptr %4, align 8
  %9 = getelementptr inbounds %"struct.Yosys::RTLIL::SigSpecIterator", ptr %8, i32 0, i32 1
  %10 = load i32, ptr %9, align 8
  %11 = icmp ne i32 %7, %10
  ret i1 %11
}

; Function Attrs: mustprogress nounwind uwtable
define linkonce_odr { ptr, i32 } @_ZN5Yosys5RTLIL7SigSpec3endEv(ptr noundef nonnull align 8 dereferenceable(64) %0) #5 comdat align 2 {
  %2 = alloca %"struct.Yosys::RTLIL::SigSpecIterator", align 8
  %3 = alloca ptr, align 8
  store ptr %0, ptr %3, align 8
  %4 = load ptr, ptr %3, align 8
  %5 = getelementptr inbounds %"struct.Yosys::RTLIL::SigSpecIterator", ptr %2, i32 0, i32 0
  store ptr %4, ptr %5, align 8
  %6 = getelementptr inbounds %"struct.Yosys::RTLIL::SigSpec", ptr %4, i32 0, i32 0
  %7 = load i32, ptr %6, align 8
  %8 = getelementptr inbounds %"struct.Yosys::RTLIL::SigSpecIterator", ptr %2, i32 0, i32 1
  store i32 %7, ptr %8, align 8
  %9 = load { ptr, i32 }, ptr %2, align 8
  ret { ptr, i32 } %9
}

; Function Attrs: mustprogress nounwind uwtable
define linkonce_odr { ptr, i32 } @_ZN5Yosys5RTLIL7SigSpec5beginEv(ptr noundef nonnull align 8 dereferenceable(64) %0) #5 comdat align 2 {
  %2 = alloca %"struct.Yosys::RTLIL::SigSpecIterator", align 8
  %3 = alloca ptr, align 8
  store ptr %0, ptr %3, align 8
  %4 = load ptr, ptr %3, align 8
  %5 = getelementptr inbounds %"struct.Yosys::RTLIL::SigSpecIterator", ptr %2, i32 0, i32 0
  store ptr %4, ptr %5, align 8
  %6 = getelementptr inbounds %"struct.Yosys::RTLIL::SigSpecIterator", ptr %2, i32 0, i32 1
  store i32 0, ptr %6, align 8
  %7 = load { ptr, i32 }, ptr %2, align 8
  ret { ptr, i32 } %7
}

; Function Attrs: mustprogress uwtable
define internal noundef zeroext i1 @_ZN12_GLOBAL__N_112TribufWorker8is_all_zEN5Yosys5RTLIL7SigSpecE(ptr noundef %0) #4 align 2 {
  %2 = alloca i1, align 1
  %3 = alloca ptr, align 8
  %4 = alloca ptr, align 8
  %5 = alloca %"struct.Yosys::RTLIL::SigSpecIterator", align 8
  %6 = alloca %"struct.Yosys::RTLIL::SigSpecIterator", align 8
  %7 = alloca %"struct.Yosys::RTLIL::SigBit", align 8
  %8 = alloca %"struct.Yosys::RTLIL::SigBit", align 8
  store ptr %0, ptr %3, align 8
  store ptr %0, ptr %4, align 8
  %9 = load ptr, ptr %4, align 8
  %10 = call { ptr, i32 } @_ZN5Yosys5RTLIL7SigSpec5beginEv(ptr noundef nonnull align 8 dereferenceable(64) %9)
  %11 = getelementptr inbounds { ptr, i32 }, ptr %5, i32 0, i32 0
  %12 = extractvalue { ptr, i32 } %10, 0
  store ptr %12, ptr %11, align 8
  %13 = getelementptr inbounds { ptr, i32 }, ptr %5, i32 0, i32 1
  %14 = extractvalue { ptr, i32 } %10, 1
  store i32 %14, ptr %13, align 8
  %15 = load ptr, ptr %4, align 8
  %16 = call { ptr, i32 } @_ZN5Yosys5RTLIL7SigSpec3endEv(ptr noundef nonnull align 8 dereferenceable(64) %15)
  %17 = getelementptr inbounds { ptr, i32 }, ptr %6, i32 0, i32 0
  %18 = extractvalue { ptr, i32 } %16, 0
  store ptr %18, ptr %17, align 8
  %19 = getelementptr inbounds { ptr, i32 }, ptr %6, i32 0, i32 1
  %20 = extractvalue { ptr, i32 } %16, 1
  store i32 %20, ptr %19, align 8
  br label %21

21:                                               ; preds = %28, %1
  %22 = call noundef zeroext i1 @_ZNK5Yosys5RTLIL15SigSpecIteratorneERKS1_(ptr noundef nonnull align 8 dereferenceable(16) %5, ptr noundef nonnull align 8 dereferenceable(16) %6)
  br i1 %22, label %23, label %29

23:                                               ; preds = %21
  %24 = call noundef nonnull align 8 dereferenceable(12) ptr @_ZNK5Yosys5RTLIL15SigSpecIteratordeEv(ptr noundef nonnull align 8 dereferenceable(16) %5)
  call void @llvm.memcpy.p0.p0.i64(ptr align 8 %7, ptr align 8 %24, i64 16, i1 false)
  call void @_ZN5Yosys5RTLIL6SigBitC2ENS0_5StateE(ptr noundef nonnull align 8 dereferenceable(12) %8, i8 noundef zeroext 3)
  %25 = call noundef zeroext i1 @_ZNK5Yosys5RTLIL6SigBitneERKS1_(ptr noundef nonnull align 8 dereferenceable(12) %7, ptr noundef nonnull align 8 dereferenceable(12) %8)
  br i1 %25, label %26, label %27

26:                                               ; preds = %23
  store i1 false, ptr %2, align 1
  br label %30

27:                                               ; preds = %23
  br label %28

28:                                               ; preds = %27
  call void @_ZN5Yosys5RTLIL15SigSpecIteratorppEv(ptr noundef nonnull align 8 dereferenceable(16) %5)
  br label %21

29:                                               ; preds = %21
  store i1 true, ptr %2, align 1
  br label %30

30:                                               ; preds = %29, %26
  %31 = load i1, ptr %2, align 1
  ret i1 %31
}