; Function Attrs: mustprogress uwtable
define internal fastcc noundef zeroext i1 @_ZN12_GLOBAL__N_112TribufWorker8is_all_zEN5Yosys5RTLIL7SigSpecE(ptr noundef %0) unnamed_addr #4 align 2 {
  %2 = load i32, ptr %0, align 8
  %.not16 = icmp eq i32 %2, 0
  br i1 %.not16, label %_ZNK5Yosys5RTLIL6SigBitneERKS1_.exit.thread, label %.lr.ph

.lr.ph:                                           ; preds = %1
  %3 = getelementptr inbounds i8, ptr %0, i64 16
  %4 = getelementptr inbounds i8, ptr %0, i64 24
  %5 = getelementptr inbounds i8, ptr %0, i64 40
  %6 = getelementptr inbounds i8, ptr %0, i64 48
  %7 = load ptr, ptr %3, align 8
  %8 = load ptr, ptr %4, align 8
  %9 = icmp eq ptr %7, %8
  br i1 %9, label %.lr.ph.split.us, label %.lr.ph.split.preheader

.lr.ph.split.preheader:                           ; preds = %.lr.ph
  %10 = zext i32 %2 to i64
  br label %.lr.ph.split

.lr.ph.split.us:                                  ; preds = %.lr.ph
  %11 = load ptr, ptr %6, align 8
  %12 = load ptr, ptr %5, align 8
  %13 = ptrtoint ptr %11 to i64
  %14 = ptrtoint ptr %12 to i64
  %15 = sub i64 %13, %14
  %16 = ashr exact i64 %15, 4
  %17 = zext i32 %2 to i64
  br label %_ZNK5Yosys5RTLIL7SigSpec13inline_unpackEv.exit.i.i.us

_ZNK5Yosys5RTLIL7SigSpec13inline_unpackEv.exit.i.i.us: ; preds = %_ZNK5Yosys5RTLIL15SigSpecIteratordeEv.exit.us, %.lr.ph.split.us
  %indvars.iv31 = phi i64 [ 0, %.lr.ph.split.us ], [ %indvars.iv.next32, %_ZNK5Yosys5RTLIL15SigSpecIteratordeEv.exit.us ]
  %exitcond.not = icmp eq i64 %indvars.iv31, %16
  br i1 %exitcond.not, label %.split.us, label %_ZNK5Yosys5RTLIL15SigSpecIteratordeEv.exit.us

_ZNK5Yosys5RTLIL15SigSpecIteratordeEv.exit.us:    ; preds = %_ZNK5Yosys5RTLIL7SigSpec13inline_unpackEv.exit.i.i.us
  %18 = getelementptr inbounds %"struct.Yosys::RTLIL::SigBit", ptr %12, i64 %indvars.iv31
  %.sroa.06.0.copyload.us = load ptr, ptr %18, align 8
  %.sroa.27.0..sroa_idx.us = getelementptr inbounds i8, ptr %18, i64 8
  %.sroa.27.0.copyload.us = load i32, ptr %.sroa.27.0..sroa_idx.us, align 8
  %.not.i.us = icmp eq ptr %.sroa.06.0.copyload.us, null
  %19 = and i32 %.sroa.27.0.copyload.us, 255
  %20 = icmp eq i32 %19, 3
  %or.cond.us.not = select i1 %.not.i.us, i1 %20, i1 false
  %indvars.iv.next32 = add nuw nsw i64 %indvars.iv31, 1
  %.not.us = icmp ne i64 %indvars.iv.next32, %17
  %or.cond.not46 = select i1 %or.cond.us.not, i1 %.not.us, i1 false
  br i1 %or.cond.not46, label %_ZNK5Yosys5RTLIL7SigSpec13inline_unpackEv.exit.i.i.us, label %_ZNK5Yosys5RTLIL6SigBitneERKS1_.exit.thread

.lr.ph.split:                                     ; preds = %_ZNK5Yosys5RTLIL15SigSpecIteratordeEv.exit, %.lr.ph.split.preheader
  %indvars.iv = phi i64 [ 0, %.lr.ph.split.preheader ], [ %indvars.iv.next, %_ZNK5Yosys5RTLIL15SigSpecIteratordeEv.exit ]
  %21 = load ptr, ptr %3, align 8
  %22 = load ptr, ptr %4, align 8
  %23 = icmp eq ptr %21, %22
  br i1 %23, label %_ZNK5Yosys5RTLIL7SigSpec13inline_unpackEv.exit.i.i, label %24

24:                                               ; preds = %.lr.ph.split
  tail call void @_ZNK5Yosys5RTLIL7SigSpec6unpackEv(ptr noundef nonnull align 8 dereferenceable(64) %0)
  br label %_ZNK5Yosys5RTLIL7SigSpec13inline_unpackEv.exit.i.i

_ZNK5Yosys5RTLIL7SigSpec13inline_unpackEv.exit.i.i: ; preds = %24, %.lr.ph.split
  %25 = load ptr, ptr %6, align 8
  %26 = load ptr, ptr %5, align 8
  %27 = ptrtoint ptr %25 to i64
  %28 = ptrtoint ptr %26 to i64
  %29 = sub i64 %27, %28
  %30 = ashr exact i64 %29, 4
  %.not.i.i.i.i = icmp ugt i64 %30, %indvars.iv
  br i1 %.not.i.i.i.i, label %_ZNK5Yosys5RTLIL15SigSpecIteratordeEv.exit, label %.split.us

.split.us:                                        ; preds = %_ZNK5Yosys5RTLIL7SigSpec13inline_unpackEv.exit.i.i, %_ZNK5Yosys5RTLIL7SigSpec13inline_unpackEv.exit.i.i.us
  %.us-phi20 = phi i64 [ %16, %_ZNK5Yosys5RTLIL7SigSpec13inline_unpackEv.exit.i.i.us ], [ %indvars.iv, %_ZNK5Yosys5RTLIL7SigSpec13inline_unpackEv.exit.i.i ]
  %.us-phi21 = phi i64 [ %16, %_ZNK5Yosys5RTLIL7SigSpec13inline_unpackEv.exit.i.i.us ], [ %30, %_ZNK5Yosys5RTLIL7SigSpec13inline_unpackEv.exit.i.i ]
  tail call void (ptr, ...) @_ZSt24__throw_out_of_range_fmtPKcz(ptr noundef nonnull @.str.25, i64 noundef %.us-phi20, i64 noundef %.us-phi21) #21
  unreachable

_ZNK5Yosys5RTLIL15SigSpecIteratordeEv.exit:       ; preds = %_ZNK5Yosys5RTLIL7SigSpec13inline_unpackEv.exit.i.i
  %31 = getelementptr inbounds %"struct.Yosys::RTLIL::SigBit", ptr %26, i64 %indvars.iv
  %.sroa.06.0.copyload = load ptr, ptr %31, align 8
  %.sroa.27.0..sroa_idx = getelementptr inbounds i8, ptr %31, i64 8
  %.sroa.27.0.copyload = load i32, ptr %.sroa.27.0..sroa_idx, align 8
  %.not.i = icmp eq ptr %.sroa.06.0.copyload, null
  %32 = and i32 %.sroa.27.0.copyload, 255
  %33 = icmp eq i32 %32, 3
  %or.cond.not = select i1 %.not.i, i1 %33, i1 false
  %indvars.iv.next = add nuw nsw i64 %indvars.iv, 1
  %.not = icmp ne i64 %indvars.iv.next, %10
  %or.cond45.not = select i1 %or.cond.not, i1 %.not, i1 false
  br i1 %or.cond45.not, label %.lr.ph.split, label %_ZNK5Yosys5RTLIL6SigBitneERKS1_.exit.thread, !llvm.loop !82

_ZNK5Yosys5RTLIL6SigBitneERKS1_.exit.thread:      ; preds = %_ZNK5Yosys5RTLIL15SigSpecIteratordeEv.exit, %_ZNK5Yosys5RTLIL15SigSpecIteratordeEv.exit.us, %1
  %.not.lcssa = phi i1 [ true, %1 ], [ %or.cond.us.not, %_ZNK5Yosys5RTLIL15SigSpecIteratordeEv.exit.us ], [ %or.cond.not, %_ZNK5Yosys5RTLIL15SigSpecIteratordeEv.exit ]
  ret i1 %.not.lcssa
}